target datalayout = "e-m:e-p270:32:32-p271:32:32-p272:64:64-i64:64-i128:128-f80:128-n8:16:32:64-S128"
target triple = "x86_64-pc-linux-gnu"

%struct.Curl_cftype = type { ptr, i32, i32, ptr, ptr, ptr, ptr, ptr, ptr, ptr, ptr, ptr, ptr, ptr, ptr }
%struct.Curl_easy = type { i32, i64, ptr, ptr, ptr, %struct.Curl_llist_element, %struct.Curl_llist_element, i32, i32, %struct.Curl_message, %struct.easy_pollset, %struct.Names, ptr, ptr, ptr, %struct.SingleRequest, %struct.UserDefined, ptr, ptr, %struct.Progress, %struct.UrlState, ptr, %struct.PureInfo, %struct.curl_tlssessioninfo }
%struct.Curl_llist_element = type { ptr, ptr, ptr }
%struct.Curl_message = type { %struct.Curl_llist_element, %struct.CURLMsg }
%struct.CURLMsg = type { i32, ptr, %union.anon }
%union.anon = type { ptr }
%struct.easy_pollset = type { [5 x i32], i32, [5 x i8] }
%struct.Names = type { ptr, i32 }
%struct.SingleRequest = type <{ i64, i64, i64, i64, i64, %struct.curltime, i32, i32, i32, i32, i64, i32, i32, %struct.curltime, i32, i32, ptr, i64, i64, ptr, ptr, i64, ptr, %union.anon.0, ptr, [2 x i8], i8, i16, [3 x i8] }>
%struct.curltime = type { i64, i32 }
%union.anon.0 = type { ptr }
%struct.UserDefined = type <{ ptr, ptr, ptr, ptr, ptr, ptr, i16, [6 x i8], i64, i64, i64, ptr, ptr, i64, i16, i16, [4 x i8], ptr, ptr, ptr, ptr, ptr, ptr, ptr, ptr, ptr, ptr, ptr, ptr, ptr, ptr, ptr, ptr, ptr, ptr, ptr, ptr, ptr, ptr, ptr, i32, i32, i32, i32, i64, i64, i64, i64, i64, i64, i64, i64, ptr, ptr, %struct.curl_mimepart, ptr, ptr, i64, i8, i8, i8, [5 x i8], %struct.ssl_config_data, %struct.ssl_config_data, ptr, i16, i8, i8, [4 x i8], %struct.ssl_general_config, i32, i32, i32, [4 x i8], ptr, ptr, i8, [7 x i8], i64, i8, i8, i8, i8, i32, ptr, ptr, ptr, i8, i8, [2 x i8], i32, [80 x ptr], [8 x ptr], i32, i32, i32, [4 x i8], ptr, ptr, ptr, ptr, ptr, i8, [3 x i8], i32, i32, [4 x i8], i64, %struct.Curl_data_priority, ptr, ptr, i64, ptr, ptr, ptr, ptr, ptr, i8, [3 x i8], i32, i8, i8, i56, [6 x i8] }>
%struct.curl_mimepart = type { ptr, ptr, i32, i32, ptr, ptr, ptr, ptr, ptr, ptr, ptr, ptr, ptr, ptr, ptr, i64, %struct.mime_state, ptr, %struct.mime_encoder_state, i64 }
%struct.mime_state = type { i32, ptr, i64 }
%struct.mime_encoder_state = type { i64, i64, i64, [256 x i8] }
%struct.ssl_config_data = type { %struct.ssl_primary_config, i64, ptr, ptr, ptr, ptr, ptr, ptr, ptr, i8 }
%struct.ssl_primary_config = type { ptr, ptr, ptr, ptr, ptr, ptr, ptr, ptr, ptr, ptr, ptr, ptr, i8, i32, i8, i8 }
%struct.ssl_general_config = type { i64, i32 }
%struct.Curl_data_priority = type { ptr, ptr, i32, i8 }
%struct.Progress = type { i64, i64, i64, i64, i64, i64, i32, i32, i64, i64, i64, i64, i64, i64, i64, i64, i64, i64, %struct.curltime, %struct.curltime, %struct.curltime, %struct.curltime, %struct.curltime, i64, %struct.curltime, i64, [6 x i64], [6 x %struct.curltime], i32, i8 }
%struct.UrlState = type { ptr, %struct.curltime, i64, i64, %struct.dynbuf, ptr, ptr, ptr, i64, ptr, i32, i32, i32, ptr, i64, [3 x %struct.tempbuf], i32, i32, ptr, i64, i32, ptr, %struct.digestdata, %struct.digestdata, %struct.auth, %struct.auth, %struct.Curl_async, ptr, %struct.curltime, %struct.Curl_tree, %struct.Curl_llist, [15 x %struct.time_node], ptr, i8, i64, ptr, i64, i64, %struct.Curl_data_priority, ptr, ptr, ptr, %struct.urlpieces, ptr, ptr, ptr, ptr, ptr, i64, %struct.dynbuf, %struct.Curl_llist, [2 x %struct.curl_header], ptr, i32, ptr, %struct.dynamically_allocated_data, i8, i8, i8, i8, i24 }
%struct.tempbuf = type { %struct.dynbuf, i32, i8 }
%struct.digestdata = type { ptr, ptr, ptr, ptr, ptr, ptr, i32, i8, i8 }
%struct.auth = type { i64, i64, i64, i8 }
%struct.Curl_async = type { ptr, ptr, ptr, ptr, i32, i32, i8 }
%struct.Curl_tree = type { ptr, ptr, ptr, ptr, %struct.curltime, ptr }
%struct.time_node = type { %struct.Curl_llist_element, %struct.curltime, i32 }
%struct.urlpieces = type { ptr, ptr, ptr, ptr, ptr, ptr, ptr, ptr }
%struct.dynbuf = type { ptr, i64, i64, i64 }
%struct.Curl_llist = type { ptr, ptr, ptr, i64 }
%struct.curl_header = type { ptr, ptr, i64, i64, i32, ptr }
%struct.dynamically_allocated_data = type { ptr, ptr, ptr, ptr, ptr, ptr, ptr, ptr, ptr, ptr, ptr, ptr, ptr, ptr }
%struct.PureInfo = type { i32, i32, i32, i64, i64, i64, i64, i64, ptr, ptr, i64, i32, [46 x i8], i32, i32, [46 x i8], i32, ptr, i32, %struct.curl_certinfo, i32, i8 }
%struct.curl_certinfo = type { i32, ptr }
%struct.curl_tlssessioninfo = type { i32, ptr }
%struct.Curl_cfilter = type { ptr, ptr, ptr, ptr, i32, i8 }
%struct.h1_tunnel_state = type { %struct.HTTP, %struct.dynbuf, %struct.dynbuf, i64, i64, %struct.Curl_chunker, i32, i64, i32, i8 }
%struct.HTTP = type { i64, ptr, %struct.back, i32, ptr, ptr, %struct.dynbuf }
%struct.back = type { ptr, ptr, ptr, i64, ptr }
%struct.Curl_chunker = type { i64, i32, i32, %struct.dynbuf, i8, [17 x i8], i8 }

@Curl_cfree = external global ptr, align 8
@.str.2 = private unnamed_addr constant [24 x i8] c"new tunnel state 'init'\00", align 1
@.str.3 = private unnamed_addr constant [27 x i8] c"new tunnel state 'connect'\00", align 1
@.str.4 = private unnamed_addr constant [27 x i8] c"new tunnel state 'receive'\00", align 1
@.str.5 = private unnamed_addr constant [28 x i8] c"new tunnel state 'response'\00", align 1
@.str.6 = private unnamed_addr constant [31 x i8] c"new tunnel state 'established'\00", align 1
@.str.7 = private unnamed_addr constant [24 x i8] c"CONNECT phase completed\00", align 1
@.str.8 = private unnamed_addr constant [26 x i8] c"new tunnel state 'failed'\00", align 1

; Function Attrs: nounwind uwtable
define internal i32 @tunnel_reinit(ptr noundef %0, ptr noundef %1, ptr noundef %2) #0 {
  %4 = alloca ptr, align 8
  %5 = alloca ptr, align 8
  %6 = alloca ptr, align 8
  store ptr %0, ptr %4, align 8
  store ptr %1, ptr %5, align 8
  store ptr %2, ptr %6, align 8
  br label %7

7:                                                ; preds = %3
  br label %8

8:                                                ; preds = %7
  %9 = load ptr, ptr %6, align 8
  %10 = getelementptr inbounds %struct.h1_tunnel_state, ptr %9, i32 0, i32 1
  call void @Curl_dyn_reset(ptr noundef %10)
  %11 = load ptr, ptr %6, align 8
  %12 = getelementptr inbounds %struct.h1_tunnel_state, ptr %11, i32 0, i32 2
  call void @Curl_dyn_reset(ptr noundef %12)
  %13 = load ptr, ptr %6, align 8
  %14 = getelementptr inbounds %struct.h1_tunnel_state, ptr %13, i32 0, i32 8
  store i32 0, ptr %14, align 8
  %15 = load ptr, ptr %6, align 8
  %16 = getelementptr inbounds %struct.h1_tunnel_state, ptr %15, i32 0, i32 6
  store i32 1, ptr %16, align 8
  %17 = load ptr, ptr %6, align 8
  %18 = getelementptr inbounds %struct.h1_tunnel_state, ptr %17, i32 0, i32 7
  store i64 0, ptr %18, align 8
  %19 = load ptr, ptr %6, align 8
  %20 = getelementptr inbounds %struct.h1_tunnel_state, ptr %19, i32 0, i32 9
  %21 = load i8, ptr %20, align 4
  %22 = and i8 %21, -3
  %23 = or i8 %22, 0
  store i8 %23, ptr %20, align 4
  ret i32 0
}

; Function Attrs: nounwind uwtable
define internal void @h1_tunnel_go_state(ptr noundef %0, ptr noundef %1, i32 noundef %2, ptr noundef %3) #0 {
  %5 = alloca ptr, align 8
  %6 = alloca ptr, align 8
  %7 = alloca i32, align 4
  %8 = alloca ptr, align 8
  store ptr %0, ptr %5, align 8
  store ptr %1, ptr %6, align 8
  store i32 %2, ptr %7, align 4
  store ptr %3, ptr %8, align 8
  %9 = load ptr, ptr %6, align 8
  %10 = getelementptr inbounds %struct.h1_tunnel_state, ptr %9, i32 0, i32 8
  %11 = load i32, ptr %10, align 8
  %12 = load i32, ptr %7, align 4
  %13 = icmp eq i32 %11, %12
  br i1 %13, label %14, label %15

14:                                               ; preds = %4
  br label %255

15:                                               ; preds = %4
  %16 = load i32, ptr %7, align 4
  switch i32 %16, label %255 [
    i32 0, label %17
    i32 1, label %49
    i32 2, label %83
    i32 3, label %113
    i32 4, label %143
    i32 5, label %201
  ]

17:                                               ; preds = %15
  br label %18

18:                                               ; preds = %17
  %19 = load ptr, ptr %8, align 8
  %20 = icmp ne ptr %19, null
  br i1 %20, label %21, label %43

21:                                               ; preds = %18
  %22 = load ptr, ptr %8, align 8
  %23 = getelementptr inbounds %struct.Curl_easy, ptr %22, i32 0, i32 16
  %24 = getelementptr inbounds %struct.UserDefined, ptr %23, i32 0, i32 122
  %25 = load i64, ptr %24, align 2
  %26 = lshr i64 %25, 28
  %27 = and i64 %26, 1
  %28 = trunc i64 %27 to i32
  %29 = icmp ne i32 %28, 0
  br i1 %29, label %30, label %43

30:                                               ; preds = %21
  %31 = load ptr, ptr %5, align 8
  %32 = icmp ne ptr %31, null
  br i1 %32, label %33, label %43

33:                                               ; preds = %30
  %34 = load ptr, ptr %5, align 8
  %35 = getelementptr inbounds %struct.Curl_cfilter, ptr %34, i32 0, i32 0
  %36 = load ptr, ptr %35, align 8
  %37 = getelementptr inbounds %struct.Curl_cftype, ptr %36, i32 0, i32 2
  %38 = load i32, ptr %37, align 4
  %39 = icmp sge i32 %38, 1
  br i1 %39, label %40, label %43

40:                                               ; preds = %33
  %41 = load ptr, ptr %8, align 8
  %42 = load ptr, ptr %5, align 8
  call void (ptr, ptr, ptr, ...) @Curl_trc_cf_infof(ptr noundef %41, ptr noundef %42, ptr noundef @.str.2)
  br label %43

43:                                               ; preds = %40, %33, %30, %21, %18
  br label %44

44:                                               ; preds = %43
  %45 = load ptr, ptr %5, align 8
  %46 = load ptr, ptr %8, align 8
  %47 = load ptr, ptr %6, align 8
  %48 = call i32 @tunnel_reinit(ptr noundef %45, ptr noundef %46, ptr noundef %47)
  br label %255

49:                                               ; preds = %15
  br label %50

50:                                               ; preds = %49
  %51 = load ptr, ptr %8, align 8
  %52 = icmp ne ptr %51, null
  br i1 %52, label %53, label %75

53:                                               ; preds = %50
  %54 = load ptr, ptr %8, align 8
  %55 = getelementptr inbounds %struct.Curl_easy, ptr %54, i32 0, i32 16
  %56 = getelementptr inbounds %struct.UserDefined, ptr %55, i32 0, i32 122
  %57 = load i64, ptr %56, align 2
  %58 = lshr i64 %57, 28
  %59 = and i64 %58, 1
  %60 = trunc i64 %59 to i32
  %61 = icmp ne i32 %60, 0
  br i1 %61, label %62, label %75

62:                                               ; preds = %53
  %63 = load ptr, ptr %5, align 8
  %64 = icmp ne ptr %63, null
  br i1 %64, label %65, label %75

65:                                               ; preds = %62
  %66 = load ptr, ptr %5, align 8
  %67 = getelementptr inbounds %struct.Curl_cfilter, ptr %66, i32 0, i32 0
  %68 = load ptr, ptr %67, align 8
  %69 = getelementptr inbounds %struct.Curl_cftype, ptr %68, i32 0, i32 2
  %70 = load i32, ptr %69, align 4
  %71 = icmp sge i32 %70, 1
  br i1 %71, label %72, label %75

72:                                               ; preds = %65
  %73 = load ptr, ptr %8, align 8
  %74 = load ptr, ptr %5, align 8
  call void (ptr, ptr, ptr, ...) @Curl_trc_cf_infof(ptr noundef %73, ptr noundef %74, ptr noundef @.str.3)
  br label %75

75:                                               ; preds = %72, %65, %62, %53, %50
  br label %76

76:                                               ; preds = %75
  %77 = load ptr, ptr %6, align 8
  %78 = getelementptr inbounds %struct.h1_tunnel_state, ptr %77, i32 0, i32 8
  store i32 1, ptr %78, align 8
  %79 = load ptr, ptr %6, align 8
  %80 = getelementptr inbounds %struct.h1_tunnel_state, ptr %79, i32 0, i32 6
  store i32 1, ptr %80, align 8
  %81 = load ptr, ptr %6, align 8
  %82 = getelementptr inbounds %struct.h1_tunnel_state, ptr %81, i32 0, i32 1
  call void @Curl_dyn_reset(ptr noundef %82)
  br label %255

83:                                               ; preds = %15
  br label %84

84:                                               ; preds = %83
  %85 = load ptr, ptr %8, align 8
  %86 = icmp ne ptr %85, null
  br i1 %86, label %87, label %109

87:                                               ; preds = %84
  %88 = load ptr, ptr %8, align 8
  %89 = getelementptr inbounds %struct.Curl_easy, ptr %88, i32 0, i32 16
  %90 = getelementptr inbounds %struct.UserDefined, ptr %89, i32 0, i32 122
  %91 = load i64, ptr %90, align 2
  %92 = lshr i64 %91, 28
  %93 = and i64 %92, 1
  %94 = trunc i64 %93 to i32
  %95 = icmp ne i32 %94, 0
  br i1 %95, label %96, label %109

96:                                               ; preds = %87
  %97 = load ptr, ptr %5, align 8
  %98 = icmp ne ptr %97, null
  br i1 %98, label %99, label %109

99:                                               ; preds = %96
  %100 = load ptr, ptr %5, align 8
  %101 = getelementptr inbounds %struct.Curl_cfilter, ptr %100, i32 0, i32 0
  %102 = load ptr, ptr %101, align 8
  %103 = getelementptr inbounds %struct.Curl_cftype, ptr %102, i32 0, i32 2
  %104 = load i32, ptr %103, align 4
  %105 = icmp sge i32 %104, 1
  br i1 %105, label %106, label %109

106:                                              ; preds = %99
  %107 = load ptr, ptr %8, align 8
  %108 = load ptr, ptr %5, align 8
  call void (ptr, ptr, ptr, ...) @Curl_trc_cf_infof(ptr noundef %107, ptr noundef %108, ptr noundef @.str.4)
  br label %109

109:                                              ; preds = %106, %99, %96, %87, %84
  br label %110

110:                                              ; preds = %109
  %111 = load ptr, ptr %6, align 8
  %112 = getelementptr inbounds %struct.h1_tunnel_state, ptr %111, i32 0, i32 8
  store i32 2, ptr %112, align 8
  br label %255

113:                                              ; preds = %15
  br label %114

114:                                              ; preds = %113
  %115 = load ptr, ptr %8, align 8
  %116 = icmp ne ptr %115, null
  br i1 %116, label %117, label %139

117:                                              ; preds = %114
  %118 = load ptr, ptr %8, align 8
  %119 = getelementptr inbounds %struct.Curl_easy, ptr %118, i32 0, i32 16
  %120 = getelementptr inbounds %struct.UserDefined, ptr %119, i32 0, i32 122
  %121 = load i64, ptr %120, align 2
  %122 = lshr i64 %121, 28
  %123 = and i64 %122, 1
  %124 = trunc i64 %123 to i32
  %125 = icmp ne i32 %124, 0
  br i1 %125, label %126, label %139

126:                                              ; preds = %117
  %127 = load ptr, ptr %5, align 8
  %128 = icmp ne ptr %127, null
  br i1 %128, label %129, label %139

129:                                              ; preds = %126
  %130 = load ptr, ptr %5, align 8
  %131 = getelementptr inbounds %struct.Curl_cfilter, ptr %130, i32 0, i32 0
  %132 = load ptr, ptr %131, align 8
  %133 = getelementptr inbounds %struct.Curl_cftype, ptr %132, i32 0, i32 2
  %134 = load i32, ptr %133, align 4
  %135 = icmp sge i32 %134, 1
  br i1 %135, label %136, label %139

136:                                              ; preds = %129
  %137 = load ptr, ptr %8, align 8
  %138 = load ptr, ptr %5, align 8
  call void (ptr, ptr, ptr, ...) @Curl_trc_cf_infof(ptr noundef %137, ptr noundef %138, ptr noundef @.str.5)
  br label %139

139:                                              ; preds = %136, %129, %126, %117, %114
  br label %140

140:                                              ; preds = %139
  %141 = load ptr, ptr %6, align 8
  %142 = getelementptr inbounds %struct.h1_tunnel_state, ptr %141, i32 0, i32 8
  store i32 3, ptr %142, align 8
  br label %255

143:                                              ; preds = %15
  br label %144

144:                                              ; preds = %143
  %145 = load ptr, ptr %8, align 8
  %146 = icmp ne ptr %145, null
  br i1 %146, label %147, label %169

147:                                              ; preds = %144
  %148 = load ptr, ptr %8, align 8
  %149 = getelementptr inbounds %struct.Curl_easy, ptr %148, i32 0, i32 16
  %150 = getelementptr inbounds %struct.UserDefined, ptr %149, i32 0, i32 122
  %151 = load i64, ptr %150, align 2
  %152 = lshr i64 %151, 28
  %153 = and i64 %152, 1
  %154 = trunc i64 %153 to i32
  %155 = icmp ne i32 %154, 0
  br i1 %155, label %156, label %169

156:                                              ; preds = %147
  %157 = load ptr, ptr %5, align 8
  %158 = icmp ne ptr %157, null
  br i1 %158, label %159, label %169

159:                                              ; preds = %156
  %160 = load ptr, ptr %5, align 8
  %161 = getelementptr inbounds %struct.Curl_cfilter, ptr %160, i32 0, i32 0
  %162 = load ptr, ptr %161, align 8
  %163 = getelementptr inbounds %struct.Curl_cftype, ptr %162, i32 0, i32 2
  %164 = load i32, ptr %163, align 4
  %165 = icmp sge i32 %164, 1
  br i1 %165, label %166, label %169

166:                                              ; preds = %159
  %167 = load ptr, ptr %8, align 8
  %168 = load ptr, ptr %5, align 8
  call void (ptr, ptr, ptr, ...) @Curl_trc_cf_infof(ptr noundef %167, ptr noundef %168, ptr noundef @.str.6)
  br label %169

169:                                              ; preds = %166, %159, %156, %147, %144
  br label %170

170:                                              ; preds = %169
  br label %171

171:                                              ; preds = %170
  %172 = load ptr, ptr %8, align 8
  %173 = icmp ne ptr %172, null
  br i1 %173, label %174, label %185

174:                                              ; preds = %171
  %175 = load ptr, ptr %8, align 8
  %176 = getelementptr inbounds %struct.Curl_easy, ptr %175, i32 0, i32 16
  %177 = getelementptr inbounds %struct.UserDefined, ptr %176, i32 0, i32 122
  %178 = load i64, ptr %177, align 2
  %179 = lshr i64 %178, 28
  %180 = and i64 %179, 1
  %181 = trunc i64 %180 to i32
  %182 = icmp ne i32 %181, 0
  br i1 %182, label %183, label %185

183:                                              ; preds = %174
  %184 = load ptr, ptr %8, align 8
  call void (ptr, ptr, ...) @Curl_infof(ptr noundef %184, ptr noundef @.str.7)
  br label %185

185:                                              ; preds = %183, %174, %171
  br label %186

186:                                              ; preds = %185
  %187 = load ptr, ptr %8, align 8
  %188 = getelementptr inbounds %struct.Curl_easy, ptr %187, i32 0, i32 20
  %189 = getelementptr inbounds %struct.UrlState, ptr %188, i32 0, i32 25
  %190 = getelementptr inbounds %struct.auth, ptr %189, i32 0, i32 3
  %191 = load i8, ptr %190, align 8
  %192 = and i8 %191, -2
  %193 = or i8 %192, 1
  store i8 %193, ptr %190, align 8
  %194 = load ptr, ptr %8, align 8
  %195 = getelementptr inbounds %struct.Curl_easy, ptr %194, i32 0, i32 20
  %196 = getelementptr inbounds %struct.UrlState, ptr %195, i32 0, i32 25
  %197 = getelementptr inbounds %struct.auth, ptr %196, i32 0, i32 3
  %198 = load i8, ptr %197, align 8
  %199 = and i8 %198, -3
  %200 = or i8 %199, 0
  store i8 %200, ptr %197, align 8
  br label %201

201:                                              ; preds = %186, %15
  %202 = load i32, ptr %7, align 4
  %203 = icmp eq i32 %202, 5
  br i1 %203, label %204, label %232

204:                                              ; preds = %201
  br label %205

205:                                              ; preds = %204
  %206 = load ptr, ptr %8, align 8
  %207 = icmp ne ptr %206, null
  br i1 %207, label %208, label %230

208:                                              ; preds = %205
  %209 = load ptr, ptr %8, align 8
  %210 = getelementptr inbounds %struct.Curl_easy, ptr %209, i32 0, i32 16
  %211 = getelementptr inbounds %struct.UserDefined, ptr %210, i32 0, i32 122
  %212 = load i64, ptr %211, align 2
  %213 = lshr i64 %212, 28
  %214 = and i64 %213, 1
  %215 = trunc i64 %214 to i32
  %216 = icmp ne i32 %215, 0
  br i1 %216, label %217, label %230

217:                                              ; preds = %208
  %218 = load ptr, ptr %5, align 8
  %219 = icmp ne ptr %218, null
  br i1 %219, label %220, label %230

220:                                              ; preds = %217
  %221 = load ptr, ptr %5, align 8
  %222 = getelementptr inbounds %struct.Curl_cfilter, ptr %221, i32 0, i32 0
  %223 = load ptr, ptr %222, align 8
  %224 = getelementptr inbounds %struct.Curl_cftype, ptr %223, i32 0, i32 2
  %225 = load i32, ptr %224, align 4
  %226 = icmp sge i32 %225, 1
  br i1 %226, label %227, label %230

227:                                              ; preds = %220
  %228 = load ptr, ptr %8, align 8
  %229 = load ptr, ptr %5, align 8
  call void (ptr, ptr, ptr, ...) @Curl_trc_cf_infof(ptr noundef %228, ptr noundef %229, ptr noundef @.str.8)
  br label %230

230:                                              ; preds = %227, %220, %217, %208, %205
  br label %231

231:                                              ; preds = %230
  br label %232

232:                                              ; preds = %231, %201
  %233 = load i32, ptr %7, align 4
  %234 = load ptr, ptr %6, align 8
  %235 = getelementptr inbounds %struct.h1_tunnel_state, ptr %234, i32 0, i32 8
  store i32 %233, ptr %235, align 8
  %236 = load ptr, ptr %6, align 8
  %237 = getelementptr inbounds %struct.h1_tunnel_state, ptr %236, i32 0, i32 1
  call void @Curl_dyn_reset(ptr noundef %237)
  %238 = load ptr, ptr %6, align 8
  %239 = getelementptr inbounds %struct.h1_tunnel_state, ptr %238, i32 0, i32 2
  call void @Curl_dyn_reset(ptr noundef %239)
  %240 = load ptr, ptr %8, align 8
  %241 = getelementptr inbounds %struct.Curl_easy, ptr %240, i32 0, i32 22
  %242 = getelementptr inbounds %struct.PureInfo, ptr %241, i32 0, i32 0
  store i32 0, ptr %242, align 8
  br label %243

243:                                              ; preds = %232
  %244 = load ptr, ptr @Curl_cfree, align 8
  %245 = load ptr, ptr %8, align 8
  %246 = getelementptr inbounds %struct.Curl_easy, ptr %245, i32 0, i32 20
  %247 = getelementptr inbounds %struct.UrlState, ptr %246, i32 0, i32 55
  %248 = getelementptr inbounds %struct.dynamically_allocated_data, ptr %247, i32 0, i32 0
  %249 = load ptr, ptr %248, align 8
  call void %244(ptr noundef %249)
  %250 = load ptr, ptr %8, align 8
  %251 = getelementptr inbounds %struct.Curl_easy, ptr %250, i32 0, i32 20
  %252 = getelementptr inbounds %struct.UrlState, ptr %251, i32 0, i32 55
  %253 = getelementptr inbounds %struct.dynamically_allocated_data, ptr %252, i32 0, i32 0
  store ptr null, ptr %253, align 8
  br label %254

254:                                              ; preds = %243
  br label %255

255:                                              ; preds = %254, %140, %110, %76, %44, %15, %14
  ret void
}

; Function Attrs: nounwind uwtable
define internal void @tunnel_free(ptr noundef %0, ptr noundef %1) #0 {
  %3 = alloca ptr, align 8
  %4 = alloca ptr, align 8
  %5 = alloca ptr, align 8
  store ptr %0, ptr %3, align 8
  store ptr %1, ptr %4, align 8
  %6 = load ptr, ptr %3, align 8
  %7 = getelementptr inbounds %struct.Curl_cfilter, ptr %6, i32 0, i32 2
  %8 = load ptr, ptr %7, align 8
  store ptr %8, ptr %5, align 8
  %9 = load ptr, ptr %5, align 8
  %10 = icmp ne ptr %9, null
  br i1 %10, label %11, label %26

11:                                               ; preds = %2
  %12 = load ptr, ptr %3, align 8
  %13 = load ptr, ptr %5, align 8
  %14 = load ptr, ptr %4, align 8
  call void @h1_tunnel_go_state(ptr noundef %12, ptr noundef %13, i32 noundef 5, ptr noundef %14)
  %15 = load ptr, ptr %5, align 8
  %16 = getelementptr inbounds %struct.h1_tunnel_state, ptr %15, i32 0, i32 1
  call void @Curl_dyn_free(ptr noundef %16)
  %17 = load ptr, ptr %5, align 8
  %18 = getelementptr inbounds %struct.h1_tunnel_state, ptr %17, i32 0, i32 2
  call void @Curl_dyn_free(ptr noundef %18)
  %19 = load ptr, ptr %4, align 8
  %20 = load ptr, ptr %5, align 8
  %21 = getelementptr inbounds %struct.h1_tunnel_state, ptr %20, i32 0, i32 5
  call void @Curl_httpchunk_free(ptr noundef %19, ptr noundef %21)
  %22 = load ptr, ptr @Curl_cfree, align 8
  %23 = load ptr, ptr %5, align 8
  call void %22(ptr noundef %23)
  %24 = load ptr, ptr %3, align 8
  %25 = getelementptr inbounds %struct.Curl_cfilter, ptr %24, i32 0, i32 2
  store ptr null, ptr %25, align 8
  br label %26

26:                                               ; preds = %11, %2
  ret void
}