; Function Attrs: nounwind uwtable
define internal fastcc void @tunnel_free(ptr noundef %0, ptr noundef %1) unnamed_addr #0 {
  %3 = getelementptr inbounds nuw i8, ptr %0, i64 16
  %4 = load ptr, ptr %3, align 8
  %.not = icmp eq ptr %4, null
  br i1 %.not, label %31, label %5

5:                                                ; preds = %2
  %6 = getelementptr inbounds nuw i8, ptr %4, i64 280
  %7 = load i32, ptr %6, align 8
  %8 = icmp eq i32 %7, 5
  br i1 %8, label %h1_tunnel_go_state.exit, label %9

9:                                                ; preds = %5
  %.not83.i = icmp eq ptr %1, null
  br i1 %.not83.i, label %20, label %10

10:                                               ; preds = %9
  %11 = getelementptr inbounds nuw i8, ptr %1, i64 2642
  %12 = load i64, ptr %11, align 2
  %13 = and i64 %12, 268435456
  %.not11 = icmp eq i64 %13, 0
  br i1 %.not11, label %20, label %14

14:                                               ; preds = %10
  %15 = load ptr, ptr %0, align 8
  %16 = getelementptr inbounds nuw i8, ptr %15, i64 12
  %17 = load i32, ptr %16, align 4
  %18 = icmp sgt i32 %17, 0
  br i1 %18, label %19, label %20

19:                                               ; preds = %14
  tail call void (ptr, ptr, ptr, ...) @Curl_trc_cf_infof(ptr noundef nonnull %1, ptr noundef nonnull %0, ptr noundef nonnull @.str.8) #5
  br label %20

20:                                               ; preds = %19, %14, %10, %9
  store i32 5, ptr %6, align 8
  %21 = getelementptr inbounds nuw i8, ptr %4, i64 112
  tail call void @Curl_dyn_reset(ptr noundef nonnull %21) #5
  %22 = getelementptr inbounds nuw i8, ptr %4, i64 144
  tail call void @Curl_dyn_reset(ptr noundef nonnull %22) #5
  %23 = getelementptr inbounds nuw i8, ptr %1, i64 4952
  store i32 0, ptr %23, align 8
  %24 = load ptr, ptr @Curl_cfree, align 8
  %25 = getelementptr inbounds nuw i8, ptr %1, i64 4824
  %26 = load ptr, ptr %25, align 8
  tail call void %24(ptr noundef %26) #5
  store ptr null, ptr %25, align 8
  br label %h1_tunnel_go_state.exit

h1_tunnel_go_state.exit:                          ; preds = %5, %20
  %27 = getelementptr inbounds nuw i8, ptr %4, i64 112
  tail call void @Curl_dyn_free(ptr noundef nonnull %27) #5
  %28 = getelementptr inbounds nuw i8, ptr %4, i64 144
  tail call void @Curl_dyn_free(ptr noundef nonnull %28) #5
  %29 = getelementptr inbounds nuw i8, ptr %4, i64 192
  tail call void @Curl_httpchunk_free(ptr noundef %1, ptr noundef nonnull %29) #5
  %30 = load ptr, ptr @Curl_cfree, align 8
  tail call void %30(ptr noundef nonnull %4) #5
  store ptr null, ptr %3, align 8
  br label %31

31:                                               ; preds = %h1_tunnel_go_state.exit, %2
  ret void
}